; ModuleID = '37/918.c'
source_filename = "37/918.c"
target datalayout = "e-m:e-p270:32:32-p271:32:32-p272:64:64-i64:64-f80:128-n8:16:32:64-S128"
target triple = "x86_64-pc-linux-gnu"

@.str = private unnamed_addr constant [4 x i8] c"no\0A\00", align 1
@.str.1 = private unnamed_addr constant [4 x i8] c"%c\0A\00", align 1
@.str.2 = private unnamed_addr constant [3 x i8] c"%d\00", align 1
@.str.3 = private unnamed_addr constant [3 x i8] c"%s\00", align 1

; Function Attrs: noinline nounwind uwtable
define dso_local void @pr(i8* %0) #0 {
  %2 = alloca i8*, align 8
  %3 = alloca i32, align 4
  %4 = alloca i32, align 4
  %5 = alloca i32, align 4
  %6 = alloca [26 x i32], align 16
  store i8* %0, i8** %2, align 8
  store i32 0, i32* %4, align 4
  br label %7

7:                                                ; preds = %14, %1
  %8 = load i32, i32* %4, align 4
  %9 = icmp slt i32 %8, 26
  br i1 %9, label %10, label %17

10:                                               ; preds = %7
  %11 = load i32, i32* %4, align 4
  %12 = sext i32 %11 to i64
  %13 = getelementptr inbounds [26 x i32], [26 x i32]* %6, i64 0, i64 %12
  store i32 0, i32* %13, align 4
  br label %14

14:                                               ; preds = %10
  %15 = load i32, i32* %4, align 4
  %16 = add nsw i32 %15, 1
  store i32 %16, i32* %4, align 4
  br label %7

17:                                               ; preds = %7
  %18 = load i8*, i8** %2, align 8
  %19 = call i64 @strlen(i8* %18) #3
  %20 = trunc i64 %19 to i32
  store i32 %20, i32* %3, align 4
  store i32 0, i32* %4, align 4
  br label %21

21:                                               ; preds = %37, %17
  %22 = load i32, i32* %4, align 4
  %23 = load i32, i32* %3, align 4
  %24 = icmp slt i32 %22, %23
  br i1 %24, label %25, label %40

25:                                               ; preds = %21
  %26 = load i8*, i8** %2, align 8
  %27 = load i32, i32* %4, align 4
  %28 = sext i32 %27 to i64
  %29 = getelementptr inbounds i8, i8* %26, i64 %28
  %30 = load i8, i8* %29, align 1
  %31 = sext i8 %30 to i32
  %32 = sub nsw i32 %31, 97
  %33 = sext i32 %32 to i64
  %34 = getelementptr inbounds [26 x i32], [26 x i32]* %6, i64 0, i64 %33
  %35 = load i32, i32* %34, align 4
  %36 = add nsw i32 %35, 1
  store i32 %36, i32* %34, align 4
  br label %37

37:                                               ; preds = %25
  %38 = load i32, i32* %4, align 4
  %39 = add nsw i32 %38, 1
  store i32 %39, i32* %4, align 4
  br label %21

40:                                               ; preds = %21
  store i32 0, i32* %4, align 4
  store i32 0, i32* %5, align 4
  br label %41

41:                                               ; preds = %59, %40
  %42 = load i32, i32* %4, align 4
  %43 = icmp slt i32 %42, 26
  br i1 %43, label %44, label %62

44:                                               ; preds = %41
  %45 = load i32, i32* %4, align 4
  %46 = sext i32 %45 to i64
  %47 = getelementptr inbounds [26 x i32], [26 x i32]* %6, i64 0, i64 %46
  %48 = load i32, i32* %47, align 4
  %49 = icmp ne i32 %48, 1
  br i1 %49, label %50, label %53

50:                                               ; preds = %44
  %51 = load i32, i32* %5, align 4
  %52 = add nsw i32 %51, 1
  store i32 %52, i32* %5, align 4
  br label %53

53:                                               ; preds = %50, %44
  %54 = load i32, i32* %5, align 4
  %55 = icmp eq i32 %54, 26
  br i1 %55, label %56, label %58

56:                                               ; preds = %53
  %57 = call i32 (i8*, ...) @printf(i8* getelementptr inbounds ([4 x i8], [4 x i8]* @.str, i64 0, i64 0))
  br label %58

58:                                               ; preds = %56, %53
  br label %59

59:                                               ; preds = %58
  %60 = load i32, i32* %4, align 4
  %61 = add nsw i32 %60, 1
  store i32 %61, i32* %4, align 4
  br label %41

62:                                               ; preds = %41
  %63 = load i32, i32* %5, align 4
  %64 = icmp ne i32 %63, 26
  br i1 %64, label %65, label %95

65:                                               ; preds = %62
  store i32 0, i32* %4, align 4
  br label %66

66:                                               ; preds = %91, %65
  %67 = load i32, i32* %4, align 4
  %68 = load i32, i32* %3, align 4
  %69 = icmp slt i32 %67, %68
  br i1 %69, label %70, label %94

70:                                               ; preds = %66
  %71 = load i8*, i8** %2, align 8
  %72 = load i32, i32* %4, align 4
  %73 = sext i32 %72 to i64
  %74 = getelementptr inbounds i8, i8* %71, i64 %73
  %75 = load i8, i8* %74, align 1
  %76 = sext i8 %75 to i32
  %77 = sub nsw i32 %76, 97
  %78 = sext i32 %77 to i64
  %79 = getelementptr inbounds [26 x i32], [26 x i32]* %6, i64 0, i64 %78
  %80 = load i32, i32* %79, align 4
  %81 = icmp eq i32 %80, 1
  br i1 %81, label %82, label %90

82:                                               ; preds = %70
  %83 = load i8*, i8** %2, align 8
  %84 = load i32, i32* %4, align 4
  %85 = sext i32 %84 to i64
  %86 = getelementptr inbounds i8, i8* %83, i64 %85
  %87 = load i8, i8* %86, align 1
  %88 = sext i8 %87 to i32
  %89 = call i32 (i8*, ...) @printf(i8* getelementptr inbounds ([4 x i8], [4 x i8]* @.str.1, i64 0, i64 0), i32 %88)
  br label %94

90:                                               ; preds = %70
  br label %91

91:                                               ; preds = %90
  %92 = load i32, i32* %4, align 4
  %93 = add nsw i32 %92, 1
  store i32 %93, i32* %4, align 4
  br label %66

94:                                               ; preds = %82, %66
  br label %95

95:                                               ; preds = %94, %62
  ret void
}

; Function Attrs: nounwind readonly
declare dso_local i64 @strlen(i8*) #1

declare dso_local i32 @printf(i8*, ...) #2

; Function Attrs: noinline nounwind uwtable
define dso_local i32 @main() #0 {
  %1 = alloca i32, align 4
  %2 = alloca i32, align 4
  %3 = alloca i32, align 4
  %4 = alloca [100000 x i8], align 16
  store i32 0, i32* %1, align 4
  %5 = call i32 (i8*, ...) @__isoc99_scanf(i8* getelementptr inbounds ([3 x i8], [3 x i8]* @.str.2, i64 0, i64 0), i32* %2)
  store i32 0, i32* %3, align 4
  br label %6

6:                                                ; preds = %14, %0
  %7 = load i32, i32* %3, align 4
  %8 = load i32, i32* %2, align 4
  %9 = icmp slt i32 %7, %8
  br i1 %9, label %10, label %17

10:                                               ; preds = %6
  %11 = getelementptr inbounds [100000 x i8], [100000 x i8]* %4, i64 0, i64 0
  %12 = call i32 (i8*, ...) @__isoc99_scanf(i8* getelementptr inbounds ([3 x i8], [3 x i8]* @.str.3, i64 0, i64 0), i8* %11)
  %13 = getelementptr inbounds [100000 x i8], [100000 x i8]* %4, i64 0, i64 0
  call void @pr(i8* %13)
  br label %14

14:                                               ; preds = %10
  %15 = load i32, i32* %3, align 4
  %16 = add nsw i32 %15, 1
  store i32 %16, i32* %3, align 4
  br label %6

17:                                               ; preds = %6
  %18 = load i32, i32* %1, align 4
  ret i32 %18
}

declare dso_local i32 @__isoc99_scanf(i8*, ...) #2


!llvm.module.flags = !{!0}
!llvm.ident = !{!1}

!0 = !{i32 1, !"wchar_size", i32 4}
!1 = !{!"clang version 10.0.0-4ubuntu1 "}
